; Function Attrs: nounwind uwtable
define internal fastcc void @dissect_fcfcs_gpl(ptr noundef %0, ptr noundef %1, i32 noundef range(i32 0, 2) %2) unnamed_addr #0 {
  %4 = alloca i32, align 4
  %.not = icmp eq ptr %1, null
  br i1 %.not, label %.loopexit, label %5

5:                                                ; preds = %3
  %.not25 = icmp eq i32 %2, 0
  br i1 %.not25, label %9, label %6

6:                                                ; preds = %5
  %7 = load i32, ptr @hf_fcs_iename, align 4
  %8 = tail call ptr @proto_tree_add_item(ptr noundef nonnull %1, i32 noundef %7, ptr noundef %0, i32 noundef 16, i32 noundef 8, i32 noundef 0) #4
  br label %.loopexit

9:                                                ; preds = %5
  %10 = load i32, ptr @hf_fcfcs_num_port_entries, align 4
  %11 = call ptr @proto_tree_add_item_ret_uint(ptr noundef nonnull %1, i32 noundef %10, ptr noundef %0, i32 noundef 16, i32 noundef 4, i32 noundef 0, ptr noundef nonnull %4) #4
  %12 = load i32, ptr %4, align 4
  %.not28 = icmp eq i32 %12, 0
  br i1 %.not28, label %.loopexit, label %.lr.ph

.lr.ph:                                           ; preds = %9, %.lr.ph
  %.027 = phi i32 [ %25, %.lr.ph ], [ 0, %9 ]
  %.02326 = phi i32 [ %24, %.lr.ph ], [ 20, %9 ]
  %13 = load i32, ptr @hf_fcs_portname, align 4
  %14 = call ptr @proto_tree_add_item(ptr noundef nonnull %1, i32 noundef %13, ptr noundef %0, i32 noundef %.02326, i32 noundef 8, i32 noundef 0) #4
  %15 = load i32, ptr @hf_fcs_portmodtype, align 4
  %16 = add i32 %.02326, 9
  %17 = call ptr @proto_tree_add_item(ptr noundef nonnull %1, i32 noundef %15, ptr noundef %0, i32 noundef %16, i32 noundef 1, i32 noundef 0) #4
  %18 = load i32, ptr @hf_fcs_porttxtype, align 4
  %19 = add i32 %.02326, 10
  %20 = call ptr @proto_tree_add_item(ptr noundef nonnull %1, i32 noundef %18, ptr noundef %0, i32 noundef %19, i32 noundef 1, i32 noundef 0) #4
  %21 = load i32, ptr @hf_fcs_porttype, align 4
  %22 = add i32 %.02326, 11
  %23 = call ptr @proto_tree_add_item(ptr noundef nonnull %1, i32 noundef %21, ptr noundef %0, i32 noundef %22, i32 noundef 1, i32 noundef 0) #4
  %24 = add i32 %.02326, 12
  %25 = add nuw i32 %.027, 1
  %26 = load i32, ptr %4, align 4
  %27 = icmp ult i32 %25, %26
  br i1 %27, label %.lr.ph, label %.loopexit, !llvm.loop !8

.loopexit:                                        ; preds = %.lr.ph, %9, %6, %3
  ret void
}